; Function Attrs: nounwind uwtable
define hidden void @SDL_EGL_DestroySurface(ptr noundef readonly captures(none) %0, ptr noundef %1) local_unnamed_addr #0 {
  %3 = getelementptr inbounds nuw i8, ptr %0, i64 1672
  %4 = load ptr, ptr %3, align 8
  %5 = icmp ne ptr %4, null
  %6 = icmp ne ptr %1, null
  %or.cond = and i1 %6, %5
  br i1 %or.cond, label %7, label %13

7:                                                ; preds = %2
  %8 = getelementptr inbounds nuw i8, ptr %4, i64 136
  %9 = load ptr, ptr %8, align 8
  %10 = getelementptr inbounds nuw i8, ptr %4, i64 16
  %11 = load ptr, ptr %10, align 8
  %12 = tail call i32 %9(ptr noundef %11, ptr noundef nonnull %1) #7
  br label %13

13:                                               ; preds = %2, %7
  ret void
}